; Function Attrs: nounwind uwtable
define internal ptr @_codecs_encode(ptr readnone captures(none) %0, ptr noundef %1, i64 noundef %2, ptr noundef %3) #0 {
  %5 = alloca [3 x ptr], align 16
  %6 = alloca i64, align 8
  %7 = alloca i64, align 8
  call void @llvm.lifetime.start.p0(i64 24, ptr nonnull %5) #5
  %.not = icmp eq ptr %3, null
  br i1 %.not, label %10, label %.thread

.thread:                                          ; preds = %4
  %8 = getelementptr i8, ptr %3, i64 16
  %.val59 = load i64, ptr %8, align 8, !tbaa !23
  %9 = add i64 %.val59, %2
  br label %14

10:                                               ; preds = %4
  %11 = add i64 %2, -1
  %12 = icmp ult i64 %11, 3
  %13 = icmp ne ptr %1, null
  %or.cond5 = and i1 %13, %12
  br i1 %or.cond5, label %.thread62, label %14

14:                                               ; preds = %10, %.thread
  %15 = phi i64 [ %9, %.thread ], [ %2, %10 ]
  %16 = call ptr @_PyArg_UnpackKeywords(ptr noundef %1, i64 noundef %2, ptr noundef null, ptr noundef %3, ptr noundef nonnull @_codecs_encode._parser, i32 noundef 1, i32 noundef 3, i32 noundef 0, i32 noundef 0, ptr noundef nonnull %5) #5
  %.not48 = icmp eq ptr %16, null
  br i1 %.not48, label %55, label %.thread62

.thread62:                                        ; preds = %10, %14
  %17 = phi ptr [ %16, %14 ], [ %1, %10 ]
  %18 = phi i64 [ %15, %14 ], [ %2, %10 ]
  %19 = load ptr, ptr %17, align 8, !tbaa !22
  %.not49 = icmp eq i64 %18, 1
  br i1 %.not49, label %.thread68, label %20

20:                                               ; preds = %.thread62
  %21 = getelementptr i8, ptr %17, i64 8
  %22 = load ptr, ptr %21, align 8, !tbaa !22
  %.not50 = icmp eq ptr %22, null
  br i1 %.not50, label %.thread66, label %23

23:                                               ; preds = %20
  %24 = getelementptr i8, ptr %22, i64 8
  %.val = load ptr, ptr %24, align 8, !tbaa !4
  %25 = getelementptr i8, ptr %.val, i64 168
  %.val57 = load i64, ptr %25, align 8, !tbaa !10
  %26 = and i64 %.val57, 268435456
  %.not51 = icmp eq i64 %26, 0
  br i1 %.not51, label %27, label %28

27:                                               ; preds = %23
  call void @_PyArg_BadArgument(ptr noundef nonnull @.str.4, ptr noundef nonnull @.str.48, ptr noundef nonnull @.str.43, ptr noundef nonnull %22) #5
  br label %55

28:                                               ; preds = %23
  call void @llvm.lifetime.start.p0(i64 8, ptr nonnull %6) #5
  %29 = call ptr @PyUnicode_AsUTF8AndSize(ptr noundef nonnull %22, ptr noundef nonnull %6) #5
  %30 = icmp eq ptr %29, null
  br i1 %30, label %.thread64, label %31

31:                                               ; preds = %28
  %32 = call i64 @strlen(ptr noundef nonnull dereferenceable(1) %29) #6
  %33 = load i64, ptr %6, align 8, !tbaa !21
  %.not52 = icmp eq i64 %32, %33
  br i1 %.not52, label %36, label %34

34:                                               ; preds = %31
  %35 = load ptr, ptr @PyExc_ValueError, align 8, !tbaa !22
  call void @PyErr_SetString(ptr noundef %35, ptr noundef nonnull @.str.44) #5
  br label %.thread64

36:                                               ; preds = %31
  %.not53 = icmp eq i64 %18, 2
  call void @llvm.lifetime.end.p0(i64 8, ptr nonnull %6) #5
  br i1 %.not53, label %_codecs_encode_impl.exit, label %.thread66

.thread64:                                        ; preds = %34, %28
  call void @llvm.lifetime.end.p0(i64 8, ptr nonnull %6) #5
  br label %55

.thread66:                                        ; preds = %36, %20
  %.1 = phi ptr [ null, %20 ], [ %29, %36 ]
  %37 = getelementptr i8, ptr %17, i64 16
  %38 = load ptr, ptr %37, align 8, !tbaa !22
  %39 = getelementptr i8, ptr %38, i64 8
  %.val56 = load ptr, ptr %39, align 8, !tbaa !4
  %40 = getelementptr i8, ptr %.val56, i64 168
  %.val58 = load i64, ptr %40, align 8, !tbaa !10
  %41 = and i64 %.val58, 268435456
  %.not54 = icmp eq i64 %41, 0
  br i1 %.not54, label %42, label %43

42:                                               ; preds = %.thread66
  call void @_PyArg_BadArgument(ptr noundef nonnull @.str.4, ptr noundef nonnull @.str.49, ptr noundef nonnull @.str.43, ptr noundef nonnull %38) #5
  br label %55

43:                                               ; preds = %.thread66
  %44 = call ptr @PyUnicode_AsUTF8AndSize(ptr noundef nonnull %38, ptr noundef nonnull %7) #5
  %45 = icmp eq ptr %44, null
  br i1 %45, label %55, label %46

46:                                               ; preds = %43
  %47 = call i64 @strlen(ptr noundef nonnull dereferenceable(1) %44) #6
  %48 = load i64, ptr %7, align 8, !tbaa !21
  %.not55 = icmp eq i64 %47, %48
  br i1 %.not55, label %51, label %49

49:                                               ; preds = %46
  %50 = load ptr, ptr @PyExc_ValueError, align 8, !tbaa !22
  call void @PyErr_SetString(ptr noundef %50, ptr noundef nonnull @.str.44) #5
  br label %55

51:                                               ; preds = %46
  %52 = icmp eq ptr %.1, null
  br i1 %52, label %.thread68, label %_codecs_encode_impl.exit

.thread68:                                        ; preds = %.thread62, %51
  %.03772 = phi ptr [ %44, %51 ], [ null, %.thread62 ]
  %53 = call ptr @PyUnicode_GetDefaultEncoding() #5
  br label %_codecs_encode_impl.exit

_codecs_encode_impl.exit:                         ; preds = %36, %51, %.thread68
  %.03771 = phi ptr [ %.03772, %.thread68 ], [ %44, %51 ], [ null, %36 ]
  %.0.i = phi ptr [ %53, %.thread68 ], [ %.1, %51 ], [ %29, %36 ]
  %54 = call ptr @PyCodec_Encode(ptr noundef %19, ptr noundef %.0.i, ptr noundef %.03771) #5
  br label %55

55:                                               ; preds = %.thread64, %27, %42, %49, %_codecs_encode_impl.exit, %14, %43
  %.039 = phi ptr [ %54, %_codecs_encode_impl.exit ], [ null, %43 ], [ null, %49 ], [ null, %42 ], [ null, %27 ], [ null, %14 ], [ null, %.thread64 ]
  call void @llvm.lifetime.end.p0(i64 24, ptr nonnull %5) #5
  ret ptr %.039
}